target datalayout = "e-m:e-p270:32:32-p271:32:32-p272:64:64-i64:64-i128:128-f80:128-n8:16:32:64-S128"
target triple = "x86_64-pc-linux-gnu"

%struct.PHP_XXH64_CTX = type { %struct.XXH_NAMESPACEXXH64_state_s }
%struct.XXH_NAMESPACEXXH64_state_s = type { i64, [4 x i64], [4 x i64], i32, i32, i64 }

; Function Attrs: nounwind uwtable
define internal i64 @XXH_read64(ptr noundef %0) #0 {
  %2 = alloca ptr, align 8
  %3 = alloca i64, align 8
  store ptr %0, ptr %2, align 8, !tbaa !4
  call void @llvm.lifetime.start.p0(i64 8, ptr %3) #14
  %4 = load ptr, ptr %2, align 8, !tbaa !4
  %5 = call ptr @XXH_memcpy(ptr noundef %3, ptr noundef %4, i64 noundef 8)
  %6 = load i64, ptr %3, align 8, !tbaa !15
  call void @llvm.lifetime.end.p0(i64 8, ptr %3) #14
  ret i64 %6
}

; Function Attrs: nounwind uwtable
define internal i64 @XXH64_round(i64 noundef %0, i64 noundef %1) #0 {
  %3 = alloca i64, align 8
  %4 = alloca i64, align 8
  store i64 %0, ptr %3, align 8, !tbaa !15
  store i64 %1, ptr %4, align 8, !tbaa !15
  %5 = load i64, ptr %4, align 8, !tbaa !15
  %6 = mul i64 %5, -4417276706812531889
  %7 = load i64, ptr %3, align 8, !tbaa !15
  %8 = add i64 %7, %6
  store i64 %8, ptr %3, align 8, !tbaa !15
  %9 = load i64, ptr %3, align 8, !tbaa !15
  %10 = call i64 @llvm.fshl.i64(i64 %9, i64 %9, i64 31)
  store i64 %10, ptr %3, align 8, !tbaa !15
  %11 = load i64, ptr %3, align 8, !tbaa !15
  %12 = mul i64 %11, -7046029288634856825
  store i64 %12, ptr %3, align 8, !tbaa !15
  %13 = load i64, ptr %3, align 8, !tbaa !15
  ret i64 %13
}

; Function Attrs: alwaysinline nounwind uwtable
define internal i64 @XXH_readLE64(ptr noundef %0) #4 {
  %2 = alloca ptr, align 8
  store ptr %0, ptr %2, align 8, !tbaa !4
  %3 = load ptr, ptr %2, align 8, !tbaa !4
  %4 = call i64 @XXH_read64(ptr noundef %3)
  ret i64 %4
}

; Function Attrs: nounwind uwtable
define internal ptr @XXH_memcpy(ptr noundef %0, ptr noundef %1, i64 noundef %2) #0 {
  %4 = alloca ptr, align 8
  %5 = alloca ptr, align 8
  %6 = alloca i64, align 8
  store ptr %0, ptr %4, align 8, !tbaa !4
  store ptr %1, ptr %5, align 8, !tbaa !4
  store i64 %2, ptr %6, align 8, !tbaa !15
  %7 = load ptr, ptr %4, align 8, !tbaa !4
  %8 = load ptr, ptr %5, align 8, !tbaa !4
  %9 = load i64, ptr %6, align 8, !tbaa !15
  call void @llvm.memcpy.p0.p0.i64(ptr align 1 %7, ptr align 1 %8, i64 %9, i1 false)
  ret ptr %7
}

; Function Attrs: inlinehint nounwind uwtable
define internal i32 @XXH_INLINE_XXH64_update(ptr noundef %0, ptr noundef %1, i64 noundef %2) #5 {
  %4 = alloca i32, align 4
  %5 = alloca ptr, align 8
  %6 = alloca ptr, align 8
  %7 = alloca i64, align 8
  %8 = alloca ptr, align 8
  %9 = alloca ptr, align 8
  %10 = alloca i32, align 4
  %11 = alloca ptr, align 8
  store ptr %0, ptr %5, align 8, !tbaa !44
  store ptr %1, ptr %6, align 8, !tbaa !4
  store i64 %2, ptr %7, align 8, !tbaa !15
  %12 = load ptr, ptr %6, align 8, !tbaa !4
  %13 = icmp eq ptr %12, null
  br i1 %13, label %14, label %15

14:                                               ; preds = %3
  store i32 0, ptr %4, align 4
  br label %221

15:                                               ; preds = %3
  call void @llvm.lifetime.start.p0(i64 8, ptr %8) #14
  %16 = load ptr, ptr %6, align 8, !tbaa !4
  store ptr %16, ptr %8, align 8, !tbaa !13
  call void @llvm.lifetime.start.p0(i64 8, ptr %9) #14
  %17 = load ptr, ptr %8, align 8, !tbaa !13
  %18 = load i64, ptr %7, align 8, !tbaa !15
  %19 = getelementptr inbounds nuw i8, ptr %17, i64 %18
  store ptr %19, ptr %9, align 8, !tbaa !13
  %20 = load i64, ptr %7, align 8, !tbaa !15
  %21 = load ptr, ptr %5, align 8, !tbaa !44
  %22 = getelementptr inbounds nuw %struct.XXH_NAMESPACEXXH64_state_s, ptr %21, i32 0, i32 0
  %23 = load i64, ptr %22, align 8, !tbaa !46
  %24 = add i64 %23, %20
  store i64 %24, ptr %22, align 8, !tbaa !46
  %25 = load ptr, ptr %5, align 8, !tbaa !44
  %26 = getelementptr inbounds nuw %struct.XXH_NAMESPACEXXH64_state_s, ptr %25, i32 0, i32 3
  %27 = load i32, ptr %26, align 8, !tbaa !47
  %28 = zext i32 %27 to i64
  %29 = load i64, ptr %7, align 8, !tbaa !15
  %30 = add i64 %28, %29
  %31 = icmp ult i64 %30, 32
  br i1 %31, label %32, label %50

32:                                               ; preds = %15
  %33 = load ptr, ptr %5, align 8, !tbaa !44
  %34 = getelementptr inbounds nuw %struct.XXH_NAMESPACEXXH64_state_s, ptr %33, i32 0, i32 2
  %35 = getelementptr inbounds [4 x i64], ptr %34, i64 0, i64 0
  %36 = load ptr, ptr %5, align 8, !tbaa !44
  %37 = getelementptr inbounds nuw %struct.XXH_NAMESPACEXXH64_state_s, ptr %36, i32 0, i32 3
  %38 = load i32, ptr %37, align 8, !tbaa !47
  %39 = zext i32 %38 to i64
  %40 = getelementptr inbounds nuw i8, ptr %35, i64 %39
  %41 = load ptr, ptr %6, align 8, !tbaa !4
  %42 = load i64, ptr %7, align 8, !tbaa !15
  %43 = call ptr @XXH_memcpy(ptr noundef %40, ptr noundef %41, i64 noundef %42)
  %44 = load i64, ptr %7, align 8, !tbaa !15
  %45 = trunc i64 %44 to i32
  %46 = load ptr, ptr %5, align 8, !tbaa !44
  %47 = getelementptr inbounds nuw %struct.XXH_NAMESPACEXXH64_state_s, ptr %46, i32 0, i32 3
  %48 = load i32, ptr %47, align 8, !tbaa !47
  %49 = add i32 %48, %45
  store i32 %49, ptr %47, align 8, !tbaa !47
  store i32 0, ptr %4, align 4
  store i32 1, ptr %10, align 4
  br label %218

50:                                               ; preds = %15
  %51 = load ptr, ptr %5, align 8, !tbaa !44
  %52 = getelementptr inbounds nuw %struct.XXH_NAMESPACEXXH64_state_s, ptr %51, i32 0, i32 3
  %53 = load i32, ptr %52, align 8, !tbaa !47
  %54 = icmp ne i32 %53, 0
  br i1 %54, label %55, label %132

55:                                               ; preds = %50
  %56 = load ptr, ptr %5, align 8, !tbaa !44
  %57 = getelementptr inbounds nuw %struct.XXH_NAMESPACEXXH64_state_s, ptr %56, i32 0, i32 2
  %58 = getelementptr inbounds [4 x i64], ptr %57, i64 0, i64 0
  %59 = load ptr, ptr %5, align 8, !tbaa !44
  %60 = getelementptr inbounds nuw %struct.XXH_NAMESPACEXXH64_state_s, ptr %59, i32 0, i32 3
  %61 = load i32, ptr %60, align 8, !tbaa !47
  %62 = zext i32 %61 to i64
  %63 = getelementptr inbounds nuw i8, ptr %58, i64 %62
  %64 = load ptr, ptr %6, align 8, !tbaa !4
  %65 = load ptr, ptr %5, align 8, !tbaa !44
  %66 = getelementptr inbounds nuw %struct.XXH_NAMESPACEXXH64_state_s, ptr %65, i32 0, i32 3
  %67 = load i32, ptr %66, align 8, !tbaa !47
  %68 = sub i32 32, %67
  %69 = zext i32 %68 to i64
  %70 = call ptr @XXH_memcpy(ptr noundef %63, ptr noundef %64, i64 noundef %69)
  %71 = load ptr, ptr %5, align 8, !tbaa !44
  %72 = getelementptr inbounds nuw %struct.XXH_NAMESPACEXXH64_state_s, ptr %71, i32 0, i32 1
  %73 = getelementptr inbounds [4 x i64], ptr %72, i64 0, i64 0
  %74 = load i64, ptr %73, align 8, !tbaa !15
  %75 = load ptr, ptr %5, align 8, !tbaa !44
  %76 = getelementptr inbounds nuw %struct.XXH_NAMESPACEXXH64_state_s, ptr %75, i32 0, i32 2
  %77 = getelementptr inbounds [4 x i64], ptr %76, i64 0, i64 0
  %78 = getelementptr inbounds i64, ptr %77, i64 0
  %79 = call i64 @XXH_readLE64(ptr noundef %78)
  %80 = call i64 @XXH64_round(i64 noundef %74, i64 noundef %79)
  %81 = load ptr, ptr %5, align 8, !tbaa !44
  %82 = getelementptr inbounds nuw %struct.XXH_NAMESPACEXXH64_state_s, ptr %81, i32 0, i32 1
  %83 = getelementptr inbounds [4 x i64], ptr %82, i64 0, i64 0
  store i64 %80, ptr %83, align 8, !tbaa !15
  %84 = load ptr, ptr %5, align 8, !tbaa !44
  %85 = getelementptr inbounds nuw %struct.XXH_NAMESPACEXXH64_state_s, ptr %84, i32 0, i32 1
  %86 = getelementptr inbounds [4 x i64], ptr %85, i64 0, i64 1
  %87 = load i64, ptr %86, align 8, !tbaa !15
  %88 = load ptr, ptr %5, align 8, !tbaa !44
  %89 = getelementptr inbounds nuw %struct.XXH_NAMESPACEXXH64_state_s, ptr %88, i32 0, i32 2
  %90 = getelementptr inbounds [4 x i64], ptr %89, i64 0, i64 0
  %91 = getelementptr inbounds i64, ptr %90, i64 1
  %92 = call i64 @XXH_readLE64(ptr noundef %91)
  %93 = call i64 @XXH64_round(i64 noundef %87, i64 noundef %92)
  %94 = load ptr, ptr %5, align 8, !tbaa !44
  %95 = getelementptr inbounds nuw %struct.XXH_NAMESPACEXXH64_state_s, ptr %94, i32 0, i32 1
  %96 = getelementptr inbounds [4 x i64], ptr %95, i64 0, i64 1
  store i64 %93, ptr %96, align 8, !tbaa !15
  %97 = load ptr, ptr %5, align 8, !tbaa !44
  %98 = getelementptr inbounds nuw %struct.XXH_NAMESPACEXXH64_state_s, ptr %97, i32 0, i32 1
  %99 = getelementptr inbounds [4 x i64], ptr %98, i64 0, i64 2
  %100 = load i64, ptr %99, align 8, !tbaa !15
  %101 = load ptr, ptr %5, align 8, !tbaa !44
  %102 = getelementptr inbounds nuw %struct.XXH_NAMESPACEXXH64_state_s, ptr %101, i32 0, i32 2
  %103 = getelementptr inbounds [4 x i64], ptr %102, i64 0, i64 0
  %104 = getelementptr inbounds i64, ptr %103, i64 2
  %105 = call i64 @XXH_readLE64(ptr noundef %104)
  %106 = call i64 @XXH64_round(i64 noundef %100, i64 noundef %105)
  %107 = load ptr, ptr %5, align 8, !tbaa !44
  %108 = getelementptr inbounds nuw %struct.XXH_NAMESPACEXXH64_state_s, ptr %107, i32 0, i32 1
  %109 = getelementptr inbounds [4 x i64], ptr %108, i64 0, i64 2
  store i64 %106, ptr %109, align 8, !tbaa !15
  %110 = load ptr, ptr %5, align 8, !tbaa !44
  %111 = getelementptr inbounds nuw %struct.XXH_NAMESPACEXXH64_state_s, ptr %110, i32 0, i32 1
  %112 = getelementptr inbounds [4 x i64], ptr %111, i64 0, i64 3
  %113 = load i64, ptr %112, align 8, !tbaa !15
  %114 = load ptr, ptr %5, align 8, !tbaa !44
  %115 = getelementptr inbounds nuw %struct.XXH_NAMESPACEXXH64_state_s, ptr %114, i32 0, i32 2
  %116 = getelementptr inbounds [4 x i64], ptr %115, i64 0, i64 0
  %117 = getelementptr inbounds i64, ptr %116, i64 3
  %118 = call i64 @XXH_readLE64(ptr noundef %117)
  %119 = call i64 @XXH64_round(i64 noundef %113, i64 noundef %118)
  %120 = load ptr, ptr %5, align 8, !tbaa !44
  %121 = getelementptr inbounds nuw %struct.XXH_NAMESPACEXXH64_state_s, ptr %120, i32 0, i32 1
  %122 = getelementptr inbounds [4 x i64], ptr %121, i64 0, i64 3
  store i64 %119, ptr %122, align 8, !tbaa !15
  %123 = load ptr, ptr %5, align 8, !tbaa !44
  %124 = getelementptr inbounds nuw %struct.XXH_NAMESPACEXXH64_state_s, ptr %123, i32 0, i32 3
  %125 = load i32, ptr %124, align 8, !tbaa !47
  %126 = sub i32 32, %125
  %127 = load ptr, ptr %8, align 8, !tbaa !13
  %128 = zext i32 %126 to i64
  %129 = getelementptr inbounds nuw i8, ptr %127, i64 %128
  store ptr %129, ptr %8, align 8, !tbaa !13
  %130 = load ptr, ptr %5, align 8, !tbaa !44
  %131 = getelementptr inbounds nuw %struct.XXH_NAMESPACEXXH64_state_s, ptr %130, i32 0, i32 3
  store i32 0, ptr %131, align 8, !tbaa !47
  br label %132

132:                                              ; preds = %55, %50
  %133 = load ptr, ptr %8, align 8, !tbaa !13
  %134 = getelementptr inbounds i8, ptr %133, i64 32
  %135 = load ptr, ptr %9, align 8, !tbaa !13
  %136 = icmp ule ptr %134, %135
  br i1 %136, label %137, label %194

137:                                              ; preds = %132
  call void @llvm.lifetime.start.p0(i64 8, ptr %11) #14
  %138 = load ptr, ptr %9, align 8, !tbaa !13
  %139 = getelementptr inbounds i8, ptr %138, i64 -32
  store ptr %139, ptr %11, align 8, !tbaa !13
  br label %140

140:                                              ; preds = %189, %137
  %141 = load ptr, ptr %5, align 8, !tbaa !44
  %142 = getelementptr inbounds nuw %struct.XXH_NAMESPACEXXH64_state_s, ptr %141, i32 0, i32 1
  %143 = getelementptr inbounds [4 x i64], ptr %142, i64 0, i64 0
  %144 = load i64, ptr %143, align 8, !tbaa !15
  %145 = load ptr, ptr %8, align 8, !tbaa !13
  %146 = call i64 @XXH_readLE64(ptr noundef %145)
  %147 = call i64 @XXH64_round(i64 noundef %144, i64 noundef %146)
  %148 = load ptr, ptr %5, align 8, !tbaa !44
  %149 = getelementptr inbounds nuw %struct.XXH_NAMESPACEXXH64_state_s, ptr %148, i32 0, i32 1
  %150 = getelementptr inbounds [4 x i64], ptr %149, i64 0, i64 0
  store i64 %147, ptr %150, align 8, !tbaa !15
  %151 = load ptr, ptr %8, align 8, !tbaa !13
  %152 = getelementptr inbounds i8, ptr %151, i64 8
  store ptr %152, ptr %8, align 8, !tbaa !13
  %153 = load ptr, ptr %5, align 8, !tbaa !44
  %154 = getelementptr inbounds nuw %struct.XXH_NAMESPACEXXH64_state_s, ptr %153, i32 0, i32 1
  %155 = getelementptr inbounds [4 x i64], ptr %154, i64 0, i64 1
  %156 = load i64, ptr %155, align 8, !tbaa !15
  %157 = load ptr, ptr %8, align 8, !tbaa !13
  %158 = call i64 @XXH_readLE64(ptr noundef %157)
  %159 = call i64 @XXH64_round(i64 noundef %156, i64 noundef %158)
  %160 = load ptr, ptr %5, align 8, !tbaa !44
  %161 = getelementptr inbounds nuw %struct.XXH_NAMESPACEXXH64_state_s, ptr %160, i32 0, i32 1
  %162 = getelementptr inbounds [4 x i64], ptr %161, i64 0, i64 1
  store i64 %159, ptr %162, align 8, !tbaa !15
  %163 = load ptr, ptr %8, align 8, !tbaa !13
  %164 = getelementptr inbounds i8, ptr %163, i64 8
  store ptr %164, ptr %8, align 8, !tbaa !13
  %165 = load ptr, ptr %5, align 8, !tbaa !44
  %166 = getelementptr inbounds nuw %struct.XXH_NAMESPACEXXH64_state_s, ptr %165, i32 0, i32 1
  %167 = getelementptr inbounds [4 x i64], ptr %166, i64 0, i64 2
  %168 = load i64, ptr %167, align 8, !tbaa !15
  %169 = load ptr, ptr %8, align 8, !tbaa !13
  %170 = call i64 @XXH_readLE64(ptr noundef %169)
  %171 = call i64 @XXH64_round(i64 noundef %168, i64 noundef %170)
  %172 = load ptr, ptr %5, align 8, !tbaa !44
  %173 = getelementptr inbounds nuw %struct.XXH_NAMESPACEXXH64_state_s, ptr %172, i32 0, i32 1
  %174 = getelementptr inbounds [4 x i64], ptr %173, i64 0, i64 2
  store i64 %171, ptr %174, align 8, !tbaa !15
  %175 = load ptr, ptr %8, align 8, !tbaa !13
  %176 = getelementptr inbounds i8, ptr %175, i64 8
  store ptr %176, ptr %8, align 8, !tbaa !13
  %177 = load ptr, ptr %5, align 8, !tbaa !44
  %178 = getelementptr inbounds nuw %struct.XXH_NAMESPACEXXH64_state_s, ptr %177, i32 0, i32 1
  %179 = getelementptr inbounds [4 x i64], ptr %178, i64 0, i64 3
  %180 = load i64, ptr %179, align 8, !tbaa !15
  %181 = load ptr, ptr %8, align 8, !tbaa !13
  %182 = call i64 @XXH_readLE64(ptr noundef %181)
  %183 = call i64 @XXH64_round(i64 noundef %180, i64 noundef %182)
  %184 = load ptr, ptr %5, align 8, !tbaa !44
  %185 = getelementptr inbounds nuw %struct.XXH_NAMESPACEXXH64_state_s, ptr %184, i32 0, i32 1
  %186 = getelementptr inbounds [4 x i64], ptr %185, i64 0, i64 3
  store i64 %183, ptr %186, align 8, !tbaa !15
  %187 = load ptr, ptr %8, align 8, !tbaa !13
  %188 = getelementptr inbounds i8, ptr %187, i64 8
  store ptr %188, ptr %8, align 8, !tbaa !13
  br label %189

189:                                              ; preds = %140
  %190 = load ptr, ptr %8, align 8, !tbaa !13
  %191 = load ptr, ptr %11, align 8, !tbaa !13
  %192 = icmp ule ptr %190, %191
  br i1 %192, label %140, label %193

193:                                              ; preds = %189
  call void @llvm.lifetime.end.p0(i64 8, ptr %11) #14
  br label %194

194:                                              ; preds = %193, %132
  %195 = load ptr, ptr %8, align 8, !tbaa !13
  %196 = load ptr, ptr %9, align 8, !tbaa !13
  %197 = icmp ult ptr %195, %196
  br i1 %197, label %198, label %217

198:                                              ; preds = %194
  %199 = load ptr, ptr %5, align 8, !tbaa !44
  %200 = getelementptr inbounds nuw %struct.XXH_NAMESPACEXXH64_state_s, ptr %199, i32 0, i32 2
  %201 = getelementptr inbounds [4 x i64], ptr %200, i64 0, i64 0
  %202 = load ptr, ptr %8, align 8, !tbaa !13
  %203 = load ptr, ptr %9, align 8, !tbaa !13
  %204 = load ptr, ptr %8, align 8, !tbaa !13
  %205 = ptrtoint ptr %203 to i64
  %206 = ptrtoint ptr %204 to i64
  %207 = sub i64 %205, %206
  %208 = call ptr @XXH_memcpy(ptr noundef %201, ptr noundef %202, i64 noundef %207)
  %209 = load ptr, ptr %9, align 8, !tbaa !13
  %210 = load ptr, ptr %8, align 8, !tbaa !13
  %211 = ptrtoint ptr %209 to i64
  %212 = ptrtoint ptr %210 to i64
  %213 = sub i64 %211, %212
  %214 = trunc i64 %213 to i32
  %215 = load ptr, ptr %5, align 8, !tbaa !44
  %216 = getelementptr inbounds nuw %struct.XXH_NAMESPACEXXH64_state_s, ptr %215, i32 0, i32 3
  store i32 %214, ptr %216, align 8, !tbaa !47
  br label %217

217:                                              ; preds = %198, %194
  store i32 0, ptr %10, align 4
  br label %218

218:                                              ; preds = %217, %32
  call void @llvm.lifetime.end.p0(i64 8, ptr %9) #14
  call void @llvm.lifetime.end.p0(i64 8, ptr %8) #14
  %219 = load i32, ptr %10, align 4
  switch i32 %219, label %223 [
    i32 0, label %220
    i32 1, label %221
  ]

220:                                              ; preds = %218
  store i32 0, ptr %4, align 4
  br label %221

221:                                              ; preds = %220, %218, %14
  %222 = load i32, ptr %4, align 4
  ret i32 %222

223:                                              ; preds = %218
  unreachable
}

; Function Attrs: nounwind uwtable
define dso_local void @PHP_XXH64Update(ptr noundef %0, ptr noundef %1, i64 noundef %2) #0 {
  %4 = alloca ptr, align 8
  %5 = alloca ptr, align 8
  %6 = alloca i64, align 8
  store ptr %0, ptr %4, align 8, !tbaa !4
  store ptr %1, ptr %5, align 8, !tbaa !13
  store i64 %2, ptr %6, align 8, !tbaa !15
  %7 = load ptr, ptr %4, align 8, !tbaa !4
  %8 = getelementptr inbounds nuw %struct.PHP_XXH64_CTX, ptr %7, i32 0, i32 0
  %9 = load ptr, ptr %5, align 8, !tbaa !13
  %10 = load i64, ptr %6, align 8, !tbaa !15
  %11 = call i32 @XXH_INLINE_XXH64_update(ptr noundef %8, ptr noundef %9, i64 noundef %10)
  ret void
}