; Function Attrs: nofree norecurse nosync nounwind memory(argmem: readwrite) uwtable
define dso_local void @PHP_XXH64Update(ptr noundef captures(none) %0, ptr noundef %1, i64 noundef %2) #1 {
  %4 = icmp eq ptr %1, null
  br i1 %4, label %XXH_INLINE_XXH64_update.exit, label %5

5:                                                ; preds = %3
  %6 = getelementptr inbounds nuw i8, ptr %1, i64 %2
  %7 = load i64, ptr %0, align 8, !tbaa !28
  %8 = add i64 %7, %2
  store i64 %8, ptr %0, align 8, !tbaa !28
  %9 = getelementptr inbounds nuw i8, ptr %0, i64 72
  %10 = load i32, ptr %9, align 8, !tbaa !30
  %11 = zext i32 %10 to i64
  %12 = add i64 %2, %11
  %13 = icmp ult i64 %12, 32
  br i1 %13, label %14, label %20

14:                                               ; preds = %5
  %15 = getelementptr inbounds nuw i8, ptr %0, i64 40
  %16 = getelementptr inbounds nuw i8, ptr %15, i64 %11
  tail call void @llvm.memcpy.p0.p0.i64(ptr nonnull align 1 %16, ptr nonnull readonly align 1 %1, i64 %2, i1 false)
  %17 = trunc i64 %2 to i32
  %18 = load i32, ptr %9, align 8, !tbaa !30
  %19 = add i32 %18, %17
  br label %.sink.split.i

20:                                               ; preds = %5
  %.not.i = icmp eq i32 %10, 0
  br i1 %.not.i, label %57, label %21

21:                                               ; preds = %20
  %22 = getelementptr inbounds nuw i8, ptr %0, i64 40
  %23 = getelementptr inbounds nuw i8, ptr %22, i64 %11
  %24 = sub i32 32, %10
  %25 = zext i32 %24 to i64
  tail call void @llvm.memcpy.p0.p0.i64(ptr nonnull align 1 %23, ptr nonnull readonly align 1 %1, i64 %25, i1 false)
  %26 = getelementptr inbounds nuw i8, ptr %0, i64 8
  %27 = load i64, ptr %26, align 8, !tbaa !31
  %.0.copyload.i.i = load i64, ptr %22, align 1
  %28 = mul i64 %.0.copyload.i.i, -4417276706812531889
  %29 = add i64 %28, %27
  %30 = tail call i64 @llvm.fshl.i64(i64 %29, i64 %29, i64 31)
  %31 = mul i64 %30, -7046029288634856825
  store i64 %31, ptr %26, align 8, !tbaa !31
  %32 = getelementptr inbounds nuw i8, ptr %0, i64 16
  %33 = load i64, ptr %32, align 8, !tbaa !31
  %34 = getelementptr inbounds nuw i8, ptr %0, i64 48
  %.0.copyload.i73.i = load i64, ptr %34, align 1
  %35 = mul i64 %.0.copyload.i73.i, -4417276706812531889
  %36 = add i64 %35, %33
  %37 = tail call i64 @llvm.fshl.i64(i64 %36, i64 %36, i64 31)
  %38 = mul i64 %37, -7046029288634856825
  store i64 %38, ptr %32, align 8, !tbaa !31
  %39 = getelementptr inbounds nuw i8, ptr %0, i64 24
  %40 = load i64, ptr %39, align 8, !tbaa !31
  %41 = getelementptr inbounds nuw i8, ptr %0, i64 56
  %.0.copyload.i74.i = load i64, ptr %41, align 1
  %42 = mul i64 %.0.copyload.i74.i, -4417276706812531889
  %43 = add i64 %42, %40
  %44 = tail call i64 @llvm.fshl.i64(i64 %43, i64 %43, i64 31)
  %45 = mul i64 %44, -7046029288634856825
  store i64 %45, ptr %39, align 8, !tbaa !31
  %46 = getelementptr inbounds nuw i8, ptr %0, i64 32
  %47 = load i64, ptr %46, align 8, !tbaa !31
  %48 = getelementptr inbounds nuw i8, ptr %0, i64 64
  %.0.copyload.i75.i = load i64, ptr %48, align 1
  %49 = mul i64 %.0.copyload.i75.i, -4417276706812531889
  %50 = add i64 %49, %47
  %51 = tail call i64 @llvm.fshl.i64(i64 %50, i64 %50, i64 31)
  %52 = mul i64 %51, -7046029288634856825
  store i64 %52, ptr %46, align 8, !tbaa !31
  %53 = load i32, ptr %9, align 8, !tbaa !30
  %54 = sub i32 32, %53
  %55 = zext i32 %54 to i64
  %56 = getelementptr inbounds nuw i8, ptr %1, i64 %55
  store i32 0, ptr %9, align 8, !tbaa !30
  br label %57

57:                                               ; preds = %21, %20
  %.066.i = phi ptr [ %56, %21 ], [ %1, %20 ]
  %58 = getelementptr inbounds nuw i8, ptr %.066.i, i64 32
  %.not71.i = icmp ugt ptr %58, %6
  br i1 %.not71.i, label %.loopexit.i, label %59

59:                                               ; preds = %57
  %60 = getelementptr inbounds i8, ptr %6, i64 -32
  %61 = getelementptr inbounds nuw i8, ptr %0, i64 8
  %62 = getelementptr inbounds nuw i8, ptr %0, i64 16
  %63 = getelementptr inbounds nuw i8, ptr %0, i64 24
  %64 = getelementptr inbounds nuw i8, ptr %0, i64 32
  %.promoted.i = load i64, ptr %61, align 8, !tbaa !31
  %.promoted80.i = load i64, ptr %62, align 8, !tbaa !31
  %.promoted81.i = load i64, ptr %63, align 8, !tbaa !31
  %.promoted82.i = load i64, ptr %64, align 8, !tbaa !31
  br label %65

65:                                               ; preds = %65, %59
  %66 = phi i64 [ %.promoted82.i, %59 ], [ %88, %65 ]
  %67 = phi i64 [ %.promoted81.i, %59 ], [ %83, %65 ]
  %68 = phi i64 [ %.promoted80.i, %59 ], [ %78, %65 ]
  %69 = phi i64 [ %.promoted.i, %59 ], [ %73, %65 ]
  %.2.i = phi ptr [ %.066.i, %59 ], [ %89, %65 ]
  %.0.copyload.i76.i = load i64, ptr %.2.i, align 1
  %70 = mul i64 %.0.copyload.i76.i, -4417276706812531889
  %71 = add i64 %70, %69
  %72 = tail call i64 @llvm.fshl.i64(i64 %71, i64 %71, i64 31)
  %73 = mul i64 %72, -7046029288634856825
  store i64 %73, ptr %61, align 8, !tbaa !31
  %74 = getelementptr inbounds nuw i8, ptr %.2.i, i64 8
  %.0.copyload.i77.i = load i64, ptr %74, align 1
  %75 = mul i64 %.0.copyload.i77.i, -4417276706812531889
  %76 = add i64 %75, %68
  %77 = tail call i64 @llvm.fshl.i64(i64 %76, i64 %76, i64 31)
  %78 = mul i64 %77, -7046029288634856825
  store i64 %78, ptr %62, align 8, !tbaa !31
  %79 = getelementptr inbounds nuw i8, ptr %.2.i, i64 16
  %.0.copyload.i78.i = load i64, ptr %79, align 1
  %80 = mul i64 %.0.copyload.i78.i, -4417276706812531889
  %81 = add i64 %80, %67
  %82 = tail call i64 @llvm.fshl.i64(i64 %81, i64 %81, i64 31)
  %83 = mul i64 %82, -7046029288634856825
  store i64 %83, ptr %63, align 8, !tbaa !31
  %84 = getelementptr inbounds nuw i8, ptr %.2.i, i64 24
  %.0.copyload.i79.i = load i64, ptr %84, align 1
  %85 = mul i64 %.0.copyload.i79.i, -4417276706812531889
  %86 = add i64 %85, %66
  %87 = tail call i64 @llvm.fshl.i64(i64 %86, i64 %86, i64 31)
  %88 = mul i64 %87, -7046029288634856825
  store i64 %88, ptr %64, align 8, !tbaa !31
  %89 = getelementptr inbounds nuw i8, ptr %.2.i, i64 32
  %.not72.i = icmp ugt ptr %89, %60
  br i1 %.not72.i, label %.loopexit.i, label %65

.loopexit.i:                                      ; preds = %65, %57
  %.167.i = phi ptr [ %.066.i, %57 ], [ %89, %65 ]
  %90 = icmp ult ptr %.167.i, %6
  br i1 %90, label %91, label %XXH_INLINE_XXH64_update.exit

91:                                               ; preds = %.loopexit.i
  %92 = getelementptr inbounds nuw i8, ptr %0, i64 40
  %93 = ptrtoint ptr %6 to i64
  %94 = ptrtoint ptr %.167.i to i64
  %95 = sub i64 %93, %94
  tail call void @llvm.memcpy.p0.p0.i64(ptr nonnull align 1 %92, ptr readonly align 1 %.167.i, i64 %95, i1 false)
  %96 = trunc i64 %95 to i32
  br label %.sink.split.i

.sink.split.i:                                    ; preds = %91, %14
  %.sink.i = phi i32 [ %19, %14 ], [ %96, %91 ]
  store i32 %.sink.i, ptr %9, align 8, !tbaa !30
  br label %XXH_INLINE_XXH64_update.exit

XXH_INLINE_XXH64_update.exit:                     ; preds = %3, %.loopexit.i, %.sink.split.i
  ret void
}